target datalayout = "e-m:e-p270:32:32-p271:32:32-p272:64:64-i64:64-i128:128-f80:128-n8:16:32:64-S128"
target triple = "x86_64-pc-linux-gnu"

%"class.std::__cxx11::basic_string" = type { %"struct.std::__cxx11::basic_string<char>::_Alloc_hider", i64, %union.anon }
%"struct.std::__cxx11::basic_string<char>::_Alloc_hider" = type { ptr }
%union.anon = type { i64, [8 x i8] }
%"class.std::vector.66" = type { %"struct.std::_Vector_base.67" }
%"struct.std::_Vector_base.67" = type { %"struct.std::_Vector_base<const Luau::Type *, std::allocator<const Luau::Type *>>::_Vector_impl" }
%"struct.std::_Vector_base<const Luau::Type *, std::allocator<const Luau::Type *>>::_Vector_impl" = type { %"struct.std::_Vector_base<const Luau::Type *, std::allocator<const Luau::Type *>>::_Vector_impl_data" }
%"struct.std::_Vector_base<const Luau::Type *, std::allocator<const Luau::Type *>>::_Vector_impl_data" = type { ptr, ptr, ptr }
%"class.std::vector.71" = type { %"struct.std::_Vector_base.72" }
%"struct.std::_Vector_base.72" = type { %"struct.std::_Vector_base<const Luau::TypePackVar *, std::allocator<const Luau::TypePackVar *>>::_Vector_impl" }
%"struct.std::_Vector_base<const Luau::TypePackVar *, std::allocator<const Luau::TypePackVar *>>::_Vector_impl" = type { %"struct.std::_Vector_base<const Luau::TypePackVar *, std::allocator<const Luau::TypePackVar *>>::_Vector_impl_data" }
%"struct.std::_Vector_base<const Luau::TypePackVar *, std::allocator<const Luau::TypePackVar *>>::_Vector_impl_data" = type { ptr, ptr, ptr }
%class.anon.106 = type { ptr, ptr }
%"struct.Luau::AstName" = type { ptr }
%"class.std::optional.378" = type { %"struct.std::_Optional_base.379" }
%"struct.std::_Optional_base.379" = type { %"struct.std::_Optional_payload.381" }
%"struct.std::_Optional_payload.381" = type { %"struct.std::_Optional_payload_base.base.383", [7 x i8] }
%"struct.std::_Optional_payload_base.base.383" = type <{ %"union.std::_Optional_payload_base<Luau::AstName>::_Storage", i8 }>
%"union.std::_Optional_payload_base<Luau::AstName>::_Storage" = type { %"struct.Luau::AstName" }
%"struct.Luau::TypeFunctionInstanceType" = type { %"struct.Luau::NotNull.408", %"class.std::vector.66", %"class.std::vector.71", %"class.std::optional.378", %"struct.Luau::UserDefinedFunctionData" }
%"struct.Luau::NotNull.408" = type { ptr }
%"struct.Luau::UserDefinedFunctionData" = type { %"class.std::weak_ptr", ptr, %"class.Luau::DenseHashMap.409", %"class.Luau::DenseHashMap.412" }
%"class.std::weak_ptr" = type { %"class.std::__weak_ptr" }
%"class.std::__weak_ptr" = type { ptr, %"class.std::__weak_count" }
%"class.std::__weak_count" = type { ptr }
%"class.Luau::DenseHashMap.409" = type { %"class.Luau::detail::DenseHashTable.410" }
%"class.Luau::detail::DenseHashTable.410" = type <{ ptr, i64, i64, %"class.std::__cxx11::basic_string", [8 x i8] }>
%"class.Luau::DenseHashMap.412" = type { %"class.Luau::detail::DenseHashTable.413" }
%"class.Luau::detail::DenseHashTable.413" = type <{ ptr, i64, i64, %"class.std::__cxx11::basic_string", [8 x i8] }>

; Function Attrs: inlinehint mustprogress uwtable
define internal void @"_ZZN4Luau16toStringDetailedEPKNS_11TypePackVarERNS_15ToStringOptionsEENK3$_0clINS_24TypeFunctionInstanceTypeEEEDaT_"(ptr noundef nonnull align 8 dereferenceable(16) %0, ptr noundef %1) #8 align 2 {
  %3 = alloca ptr, align 8
  %4 = alloca ptr, align 8
  store ptr %0, ptr %3, align 8, !tbaa !137
  store ptr %1, ptr %4, align 8, !tbaa !1044
  %5 = load ptr, ptr %3, align 8
  %6 = getelementptr inbounds nuw %class.anon.106, ptr %5, i32 0, i32 0
  %7 = load ptr, ptr %6, align 8, !tbaa !1066
  %8 = getelementptr inbounds nuw %class.anon.106, ptr %5, i32 0, i32 1
  %9 = load ptr, ptr %8, align 8, !tbaa !243
  call void @_ZN4Luau15TypeStringifierclEPKNS_4TypeERKNS_24TypeFunctionInstanceTypeE(ptr noundef nonnull align 8 dereferenceable(8) %7, ptr noundef %9, ptr noundef nonnull align 8 dereferenceable(224) %1)
  ret void
}

; Function Attrs: mustprogress uwtable
define internal void @"_ZN4LuauL8fnVisitVIZNS_16toStringDetailedEPKNS_11TypePackVarERNS_15ToStringOptionsEE3$_0KNS_24TypeFunctionInstanceTypeEEEvRT_PNSt11conditionalIXsr3stdE10is_const_vIT0_EEKvvE4typeE"(ptr noundef nonnull align 8 dereferenceable(16) %0, ptr noundef %1) #5 personality ptr @__gxx_personality_v0 {
  %3 = alloca ptr, align 8
  %4 = alloca ptr, align 8
  %5 = alloca %"struct.Luau::TypeFunctionInstanceType", align 8
  %6 = alloca ptr, align 8
  %7 = alloca i32, align 4
  store ptr %0, ptr %3, align 8, !tbaa !137
  store ptr %1, ptr %4, align 8, !tbaa !137
  %8 = load ptr, ptr %3, align 8, !tbaa !137
  %9 = load ptr, ptr %4, align 8, !tbaa !137
  call void @_ZN4Luau24TypeFunctionInstanceTypeC2ERKS0_(ptr noundef nonnull align 8 dereferenceable(224) %5, ptr noundef nonnull align 8 dereferenceable(224) %9)
  invoke void @"_ZZN4Luau16toStringDetailedEPKNS_11TypePackVarERNS_15ToStringOptionsEENK3$_0clINS_24TypeFunctionInstanceTypeEEEDaT_"(ptr noundef nonnull align 8 dereferenceable(16) %8, ptr noundef %5)
          to label %10 unwind label %11

10:                                               ; preds = %2
  call void @_ZN4Luau24TypeFunctionInstanceTypeD2Ev(ptr noundef nonnull align 8 dereferenceable(224) %5) #3
  ret void

11:                                               ; preds = %2
  %12 = landingpad { ptr, i32 }
          cleanup
  %13 = extractvalue { ptr, i32 } %12, 0
  store ptr %13, ptr %6, align 8
  %14 = extractvalue { ptr, i32 } %12, 1
  store i32 %14, ptr %7, align 4
  call void @_ZN4Luau24TypeFunctionInstanceTypeD2Ev(ptr noundef nonnull align 8 dereferenceable(224) %5) #3
  br label %15

15:                                               ; preds = %11
  %16 = load ptr, ptr %6, align 8
  %17 = load i32, ptr %7, align 4
  %18 = insertvalue { ptr, i32 } poison, ptr %16, 0
  %19 = insertvalue { ptr, i32 } %18, i32 %17, 1
  resume { ptr, i32 } %19
}