; Function Attrs: mustprogress uwtable
define internal void @"_ZN4LuauL8fnVisitVIZNS_16toStringDetailedEPKNS_11TypePackVarERNS_15ToStringOptionsEE3$_0KNS_24TypeFunctionInstanceTypeEEEvRT_PNSt11conditionalIXsr3stdE10is_const_vIT0_EEKvvE4typeE"(ptr noundef nonnull readonly align 8 captures(none) dereferenceable(16) %0, ptr noundef nonnull %1) #6 personality ptr @__gxx_personality_v0 {
  %3 = alloca %"struct.Luau::TypeFunctionInstanceType", align 8
  call void @_ZN4Luau24TypeFunctionInstanceTypeC2ERKS0_(ptr noundef nonnull align 8 dereferenceable(224) %3, ptr noundef nonnull align 8 dereferenceable(224) %1)
  %.val = load ptr, ptr %0, align 8, !tbaa !652
  %4 = getelementptr inbounds nuw i8, ptr %0, i64 8
  %.val3 = load ptr, ptr %4, align 8, !tbaa !250
  invoke void @_ZN4Luau15TypeStringifierclEPKNS_4TypeERKNS_24TypeFunctionInstanceTypeE(ptr noundef nonnull align 8 dereferenceable(8) %.val, ptr noundef %.val3, ptr noundef nonnull align 8 dereferenceable(224) %3)
          to label %"_ZZN4Luau16toStringDetailedEPKNS_11TypePackVarERNS_15ToStringOptionsEENK3$_0clINS_24TypeFunctionInstanceTypeEEEDaT_.exit" unwind label %22

"_ZZN4Luau16toStringDetailedEPKNS_11TypePackVarERNS_15ToStringOptionsEENK3$_0clINS_24TypeFunctionInstanceTypeEEEDaT_.exit": ; preds = %2
  %5 = getelementptr inbounds nuw i8, ptr %3, i64 72
  call void @_ZN4Luau23UserDefinedFunctionDataD2Ev(ptr noundef nonnull align 8 dereferenceable(152) %5) #29
  %6 = getelementptr inbounds nuw i8, ptr %3, i64 32
  %7 = load ptr, ptr %6, align 8, !tbaa !237
  %.not.i.i.i.i = icmp eq ptr %7, null
  br i1 %.not.i.i.i.i, label %_ZNSt6vectorIPKN4Luau11TypePackVarESaIS3_EED2Ev.exit.i, label %8

8:                                                ; preds = %"_ZZN4Luau16toStringDetailedEPKNS_11TypePackVarERNS_15ToStringOptionsEENK3$_0clINS_24TypeFunctionInstanceTypeEEEDaT_.exit"
  %9 = getelementptr inbounds nuw i8, ptr %3, i64 48
  %10 = load ptr, ptr %9, align 8, !tbaa !655
  %11 = ptrtoint ptr %10 to i64
  %12 = ptrtoint ptr %7 to i64
  %13 = sub i64 %11, %12
  call void @_ZdlPvm(ptr noundef nonnull %7, i64 noundef %13) #30
  br label %_ZNSt6vectorIPKN4Luau11TypePackVarESaIS3_EED2Ev.exit.i

_ZNSt6vectorIPKN4Luau11TypePackVarESaIS3_EED2Ev.exit.i: ; preds = %8, %"_ZZN4Luau16toStringDetailedEPKNS_11TypePackVarERNS_15ToStringOptionsEENK3$_0clINS_24TypeFunctionInstanceTypeEEEDaT_.exit"
  %14 = getelementptr inbounds nuw i8, ptr %3, i64 8
  %15 = load ptr, ptr %14, align 8, !tbaa !233
  %.not.i.i.i1.i = icmp eq ptr %15, null
  br i1 %.not.i.i.i1.i, label %_ZN4Luau24TypeFunctionInstanceTypeD2Ev.exit, label %16

16:                                               ; preds = %_ZNSt6vectorIPKN4Luau11TypePackVarESaIS3_EED2Ev.exit.i
  %17 = getelementptr inbounds nuw i8, ptr %3, i64 24
  %18 = load ptr, ptr %17, align 8, !tbaa !654
  %19 = ptrtoint ptr %18 to i64
  %20 = ptrtoint ptr %15 to i64
  %21 = sub i64 %19, %20
  call void @_ZdlPvm(ptr noundef nonnull %15, i64 noundef %21) #30
  br label %_ZN4Luau24TypeFunctionInstanceTypeD2Ev.exit

_ZN4Luau24TypeFunctionInstanceTypeD2Ev.exit:      ; preds = %_ZNSt6vectorIPKN4Luau11TypePackVarESaIS3_EED2Ev.exit.i, %16
  ret void

22:                                               ; preds = %2
  %23 = landingpad { ptr, i32 }
          cleanup
  call void @_ZN4Luau24TypeFunctionInstanceTypeD2Ev(ptr noundef nonnull align 8 dereferenceable(224) %3) #29
  resume { ptr, i32 } %23
}